; Function Attrs: nounwind uwtable
define internal fastcc range(i32 -27136, 1) i32 @ssl_tls13_write_server_hello_supported_versions_ext(ptr noundef %0, ptr noundef %1, ptr noundef %2, ptr noundef nonnull writeonly captures(none) initializes((0, 8)) %3) unnamed_addr #0 {
  store i64 0, ptr %3, align 8, !tbaa !39
  tail call void (ptr, i32, ptr, i32, ptr, ...) @mbedtls_debug_print_msg(ptr noundef %0, i32 noundef 3, ptr noundef nonnull @.str, i32 noundef 2049, ptr noundef nonnull @.str.95) #9
  %5 = icmp ule ptr %1, %2
  %6 = ptrtoint ptr %2 to i64
  %7 = ptrtoint ptr %1 to i64
  %8 = sub i64 %6, %7
  %9 = icmp ugt i64 %8, 5
  %narrow.i.not = and i1 %5, %9
  br i1 %narrow.i.not, label %10, label %26

10:                                               ; preds = %4
  store i16 11008, ptr %1, align 1
  %11 = getelementptr inbounds nuw i8, ptr %1, i64 2
  store i16 512, ptr %11, align 1
  %12 = getelementptr inbounds nuw i8, ptr %1, i64 4
  %13 = load ptr, ptr %0, align 8, !tbaa !40
  %14 = getelementptr inbounds nuw i8, ptr %13, i64 9
  %15 = load i8, ptr %14, align 1, !tbaa !41
  %16 = zext i8 %15 to i32
  %17 = getelementptr inbounds nuw i8, ptr %0, i64 20
  %18 = load i32, ptr %17, align 4, !tbaa !48
  tail call void @mbedtls_ssl_write_version(ptr noundef nonnull %12, i32 noundef %16, i32 noundef %18) #9
  %19 = load i32, ptr %17, align 4, !tbaa !48
  tail call void (ptr, i32, ptr, i32, ptr, ...) @mbedtls_debug_print_msg(ptr noundef nonnull %0, i32 noundef 3, ptr noundef nonnull @.str, i32 noundef 2067, ptr noundef nonnull @.str.96, i32 noundef %19) #9
  store i64 6, ptr %3, align 8, !tbaa !39
  %20 = tail call i32 @mbedtls_ssl_get_extension_mask(i32 noundef 43) #9
  %21 = getelementptr inbounds nuw i8, ptr %0, i64 112
  %22 = load ptr, ptr %21, align 8, !tbaa !16
  %23 = getelementptr inbounds nuw i8, ptr %22, i64 3272
  %24 = load i32, ptr %23, align 8, !tbaa !77
  %25 = or i32 %24, %20
  store i32 %25, ptr %23, align 8, !tbaa !77
  br label %26

26:                                               ; preds = %4, %10
  %.0 = phi i32 [ 0, %10 ], [ -27136, %4 ]
  ret i32 %.0
}